target datalayout = "e-m:e-p270:32:32-p271:32:32-p272:64:64-i64:64-i128:128-f80:128-n8:16:32:64-S128"
target triple = "x86_64-pc-linux-gnu"

%struct.AVRational = type { i32, i32 }
%struct.AVCodecParameters = type { i32, i32, i32, ptr, i32, ptr, i32, i32, i64, i32, i32, i32, i32, i32, i32, %struct.AVRational, %struct.AVRational, i32, i32, i32, i32, i32, i32, i32, %struct.AVChannelLayout, i32, i32, i32, i32, i32, i32 }
%struct.AVChannelLayout = type { i32, i32, %union.anon, ptr }
%union.anon = type { i64 }

; Function Attrs: nounwind uwtable
define internal i32 @samples_per_packet(ptr noundef %0) #0 {
  %2 = alloca i32, align 4
  %3 = alloca ptr, align 8
  %4 = alloca i32, align 4
  %5 = alloca i32, align 4
  %6 = alloca i32, align 4
  %7 = alloca i32, align 4
  %8 = alloca i32, align 4
  %9 = alloca i32, align 4
  store ptr %0, ptr %3, align 8, !tbaa !37
  call void @llvm.lifetime.start.p0(i64 4, ptr %4) #5
  %10 = load ptr, ptr %3, align 8, !tbaa !37
  %11 = getelementptr inbounds nuw %struct.AVCodecParameters, ptr %10, i32 0, i32 1
  %12 = load i32, ptr %11, align 4, !tbaa !42
  store i32 %12, ptr %4, align 4, !tbaa !45
  call void @llvm.lifetime.start.p0(i64 4, ptr %5) #5
  %13 = load ptr, ptr %3, align 8, !tbaa !37
  %14 = getelementptr inbounds nuw %struct.AVCodecParameters, ptr %13, i32 0, i32 24
  %15 = getelementptr inbounds nuw %struct.AVChannelLayout, ptr %14, i32 0, i32 1
  %16 = load i32, ptr %15, align 4, !tbaa !49
  store i32 %16, ptr %5, align 4, !tbaa !45
  call void @llvm.lifetime.start.p0(i64 4, ptr %6) #5
  %17 = load ptr, ptr %3, align 8, !tbaa !37
  %18 = getelementptr inbounds nuw %struct.AVCodecParameters, ptr %17, i32 0, i32 26
  %19 = load i32, ptr %18, align 4, !tbaa !50
  store i32 %19, ptr %6, align 4, !tbaa !45
  call void @llvm.lifetime.start.p0(i64 4, ptr %7) #5
  %20 = load ptr, ptr %3, align 8, !tbaa !37
  %21 = getelementptr inbounds nuw %struct.AVCodecParameters, ptr %20, i32 0, i32 27
  %22 = load i32, ptr %21, align 8, !tbaa !47
  store i32 %22, ptr %7, align 4, !tbaa !45
  call void @llvm.lifetime.start.p0(i64 4, ptr %8) #5
  %23 = load ptr, ptr %3, align 8, !tbaa !37
  %24 = getelementptr inbounds nuw %struct.AVCodecParameters, ptr %23, i32 0, i32 25
  %25 = load i32, ptr %24, align 8, !tbaa !48
  store i32 %25, ptr %8, align 4, !tbaa !45
  %26 = load i32, ptr %4, align 4, !tbaa !45
  switch i32 %26, label %63 [
    i32 65540, label %27
    i32 65536, label %27
    i32 65537, label %27
    i32 65548, label %27
    i32 65549, label %27
    i32 65544, label %27
    i32 65545, label %27
    i32 65557, label %27
    i32 65556, label %27
    i32 65559, label %27
    i32 65558, label %27
    i32 65543, label %27
    i32 65542, label %27
    i32 86025, label %28
    i32 86026, label %28
    i32 69632, label %29
    i32 73728, label %30
    i32 86034, label %30
    i32 86075, label %30
    i32 86040, label %30
    i32 86046, label %31
    i32 86058, label %32
    i32 86076, label %33
    i32 86016, label %38
    i32 86017, label %38
    i32 86019, label %39
    i32 86035, label %40
    i32 86066, label %40
    i32 86032, label %43
    i32 69633, label %44
    i32 69638, label %54
  ]

27:                                               ; preds = %1, %1, %1, %1, %1, %1, %1, %1, %1, %1, %1, %1, %1
  store i32 1, ptr %2, align 4
  store i32 1, ptr %9, align 4
  br label %64

28:                                               ; preds = %1, %1
  store i32 6, ptr %2, align 4
  store i32 1, ptr %9, align 4
  br label %64

29:                                               ; preds = %1
  store i32 64, ptr %2, align 4
  store i32 1, ptr %9, align 4
  br label %64

30:                                               ; preds = %1, %1, %1, %1
  store i32 160, ptr %2, align 4
  store i32 1, ptr %9, align 4
  br label %64

31:                                               ; preds = %1
  store i32 320, ptr %2, align 4
  store i32 1, ptr %9, align 4
  br label %64

32:                                               ; preds = %1
  store i32 384, ptr %2, align 4
  store i32 1, ptr %9, align 4
  br label %64

33:                                               ; preds = %1
  %34 = load i32, ptr %7, align 4, !tbaa !45
  %35 = mul nsw i32 %34, 48000
  %36 = load i32, ptr %8, align 4, !tbaa !45
  %37 = sdiv i32 %35, %36
  store i32 %37, ptr %2, align 4
  store i32 1, ptr %9, align 4
  br label %64

38:                                               ; preds = %1, %1
  store i32 1152, ptr %2, align 4
  store i32 1, ptr %9, align 4
  br label %64

39:                                               ; preds = %1
  store i32 1536, ptr %2, align 4
  store i32 1, ptr %9, align 4
  br label %64

40:                                               ; preds = %1, %1
  %41 = load i32, ptr %5, align 4, !tbaa !45
  %42 = mul nsw i32 2048, %41
  store i32 %42, ptr %2, align 4
  store i32 1, ptr %9, align 4
  br label %64

43:                                               ; preds = %1
  store i32 4096, ptr %2, align 4
  store i32 1, ptr %9, align 4
  br label %64

44:                                               ; preds = %1
  %45 = load i32, ptr %6, align 4, !tbaa !45
  %46 = load i32, ptr %5, align 4, !tbaa !45
  %47 = mul nsw i32 4, %46
  %48 = sub nsw i32 %45, %47
  %49 = mul nsw i32 %48, 8
  %50 = load i32, ptr %5, align 4, !tbaa !45
  %51 = mul nsw i32 4, %50
  %52 = sdiv i32 %49, %51
  %53 = add nsw i32 %52, 1
  store i32 %53, ptr %2, align 4
  store i32 1, ptr %9, align 4
  br label %64

54:                                               ; preds = %1
  %55 = load i32, ptr %6, align 4, !tbaa !45
  %56 = load i32, ptr %5, align 4, !tbaa !45
  %57 = mul nsw i32 7, %56
  %58 = sub nsw i32 %55, %57
  %59 = mul nsw i32 %58, 2
  %60 = load i32, ptr %5, align 4, !tbaa !45
  %61 = sdiv i32 %59, %60
  %62 = add nsw i32 %61, 2
  store i32 %62, ptr %2, align 4
  store i32 1, ptr %9, align 4
  br label %64

63:                                               ; preds = %1
  store i32 0, ptr %2, align 4
  store i32 1, ptr %9, align 4
  br label %64

64:                                               ; preds = %63, %54, %44, %43, %40, %39, %38, %33, %32, %31, %30, %29, %28, %27
  call void @llvm.lifetime.end.p0(i64 4, ptr %8) #5
  call void @llvm.lifetime.end.p0(i64 4, ptr %7) #5
  call void @llvm.lifetime.end.p0(i64 4, ptr %6) #5
  call void @llvm.lifetime.end.p0(i64 4, ptr %5) #5
  call void @llvm.lifetime.end.p0(i64 4, ptr %4) #5
  %65 = load i32, ptr %2, align 4
  ret i32 %65
}