; Function Attrs: mustprogress nofree norecurse nosync nounwind willreturn memory(argmem: read) uwtable
define internal fastcc i32 @samples_per_packet(ptr noundef readonly captures(none) %0) unnamed_addr #2 {
  %2 = getelementptr inbounds nuw i8, ptr %0, i64 4
  %3 = load i32, ptr %2, align 4, !tbaa !35
  %4 = getelementptr inbounds nuw i8, ptr %0, i64 132
  %5 = load i32, ptr %4, align 4, !tbaa !40
  %6 = getelementptr inbounds nuw i8, ptr %0, i64 156
  %7 = load i32, ptr %6, align 4, !tbaa !41
  switch i32 %3, label %36 [
    i32 65540, label %37
    i32 65536, label %37
    i32 65537, label %37
    i32 65548, label %37
    i32 65549, label %37
    i32 65544, label %37
    i32 65545, label %37
    i32 65557, label %37
    i32 65556, label %37
    i32 65559, label %37
    i32 65558, label %37
    i32 65543, label %37
    i32 65542, label %37
    i32 86025, label %8
    i32 86026, label %8
    i32 69632, label %9
    i32 73728, label %10
    i32 86034, label %10
    i32 86075, label %10
    i32 86040, label %10
    i32 86046, label %11
    i32 86058, label %12
    i32 86076, label %13
    i32 86016, label %20
    i32 86017, label %20
    i32 86019, label %21
    i32 86035, label %22
    i32 86066, label %22
    i32 86032, label %24
    i32 69633, label %25
    i32 69638, label %31
  ]

8:                                                ; preds = %1, %1
  br label %37

9:                                                ; preds = %1
  br label %37

10:                                               ; preds = %1, %1, %1, %1
  br label %37

11:                                               ; preds = %1
  br label %37

12:                                               ; preds = %1
  br label %37

13:                                               ; preds = %1
  %14 = getelementptr inbounds nuw i8, ptr %0, i64 152
  %15 = load i32, ptr %14, align 8, !tbaa !39
  %16 = getelementptr inbounds nuw i8, ptr %0, i64 160
  %17 = load i32, ptr %16, align 8, !tbaa !38
  %18 = mul nsw i32 %17, 48000
  %19 = sdiv i32 %18, %15
  br label %37

20:                                               ; preds = %1, %1
  br label %37

21:                                               ; preds = %1
  br label %37

22:                                               ; preds = %1, %1
  %23 = shl nsw i32 %5, 11
  br label %37

24:                                               ; preds = %1
  br label %37

25:                                               ; preds = %1
  %26 = shl nsw i32 %5, 2
  %27 = sub nsw i32 %7, %26
  %28 = shl nsw i32 %27, 3
  %29 = sdiv i32 %28, %26
  %30 = add nsw i32 %29, 1
  br label %37

31:                                               ; preds = %1
  %.neg = mul i32 %5, -7
  %32 = add i32 %.neg, %7
  %33 = shl nsw i32 %32, 1
  %34 = sdiv i32 %33, %5
  %35 = add nsw i32 %34, 2
  br label %37

36:                                               ; preds = %1
  br label %37

37:                                               ; preds = %1, %1, %1, %1, %1, %1, %1, %1, %1, %1, %1, %1, %1, %36, %31, %25, %24, %22, %21, %20, %13, %12, %11, %10, %9, %8
  %.0 = phi i32 [ 0, %36 ], [ %35, %31 ], [ %30, %25 ], [ 4096, %24 ], [ %23, %22 ], [ 1536, %21 ], [ 1152, %20 ], [ %19, %13 ], [ 384, %12 ], [ 320, %11 ], [ 160, %10 ], [ 64, %9 ], [ 6, %8 ], [ 1, %1 ], [ 1, %1 ], [ 1, %1 ], [ 1, %1 ], [ 1, %1 ], [ 1, %1 ], [ 1, %1 ], [ 1, %1 ], [ 1, %1 ], [ 1, %1 ], [ 1, %1 ], [ 1, %1 ], [ 1, %1 ]
  ret i32 %.0
}